target datalayout = "e-m:e-p270:32:32-p271:32:32-p272:64:64-i64:64-i128:128-f80:128-n8:16:32:64-S128"
target triple = "x86_64-pc-linux-gnu"

%struct.If_Par_t_ = type { i32, i32, i32, i32, i32, i32, float, float, i32, i32, i32, i32, i32, i32, i32, i32, i32, i32, i32, i32, i32, i32, i32, i32, i32, i32, i32, i32, i32, i32, i32, i32, i32, i32, i32, i32, i32, i32, i32, i32, i32, i32, i32, i32, i32, i32, i32, i32, i32, i32, ptr, i32, float, i32, i32, i32, i32, i32, i32, i32, i32, i32, i32, i32, i32, i32, i32, float, float, float, ptr, ptr, ptr, ptr, ptr, ptr, ptr, ptr, ptr }

; Function Attrs: nounwind uwtable
define void @Gia_ManSetIfParsDefault(ptr noundef %0) #0 {
  %2 = alloca ptr, align 8
  %3 = alloca ptr, align 8
  %4 = alloca ptr, align 8
  store ptr %0, ptr %2, align 8, !tbaa !3
  call void @llvm.lifetime.start.p0(i64 8, ptr %3) #14
  %5 = load ptr, ptr %2, align 8, !tbaa !3
  store ptr %5, ptr %3, align 8, !tbaa !7
  call void @llvm.lifetime.start.p0(i64 8, ptr %4) #14
  %6 = load ptr, ptr %3, align 8, !tbaa !7
  store ptr %6, ptr %4, align 8, !tbaa !7
  %7 = load ptr, ptr %4, align 8, !tbaa !7
  call void @llvm.memset.p0.i64(ptr align 8 %7, i8 0, i64 360, i1 false)
  %8 = load ptr, ptr %4, align 8, !tbaa !7
  %9 = getelementptr inbounds nuw %struct.If_Par_t_, ptr %8, i32 0, i32 0
  store i32 -1, ptr %9, align 8, !tbaa !9
  %10 = load ptr, ptr %4, align 8, !tbaa !7
  %11 = getelementptr inbounds nuw %struct.If_Par_t_, ptr %10, i32 0, i32 1
  store i32 8, ptr %11, align 4, !tbaa !16
  %12 = load ptr, ptr %4, align 8, !tbaa !7
  %13 = getelementptr inbounds nuw %struct.If_Par_t_, ptr %12, i32 0, i32 2
  store i32 1, ptr %13, align 8, !tbaa !17
  %14 = load ptr, ptr %4, align 8, !tbaa !7
  %15 = getelementptr inbounds nuw %struct.If_Par_t_, ptr %14, i32 0, i32 3
  store i32 2, ptr %15, align 4, !tbaa !18
  %16 = load ptr, ptr %4, align 8, !tbaa !7
  %17 = getelementptr inbounds nuw %struct.If_Par_t_, ptr %16, i32 0, i32 6
  store float -1.000000e+00, ptr %17, align 8, !tbaa !19
  %18 = load ptr, ptr %4, align 8, !tbaa !7
  %19 = getelementptr inbounds nuw %struct.If_Par_t_, ptr %18, i32 0, i32 7
  store float 0x3F747AE140000000, ptr %19, align 4, !tbaa !20
  %20 = load ptr, ptr %4, align 8, !tbaa !7
  %21 = getelementptr inbounds nuw %struct.If_Par_t_, ptr %20, i32 0, i32 13
  store i32 1, ptr %21, align 4, !tbaa !21
  %22 = load ptr, ptr %4, align 8, !tbaa !7
  %23 = getelementptr inbounds nuw %struct.If_Par_t_, ptr %22, i32 0, i32 14
  store i32 0, ptr %23, align 8, !tbaa !22
  %24 = load ptr, ptr %4, align 8, !tbaa !7
  %25 = getelementptr inbounds nuw %struct.If_Par_t_, ptr %24, i32 0, i32 15
  store i32 0, ptr %25, align 4, !tbaa !23
  %26 = load ptr, ptr %4, align 8, !tbaa !7
  %27 = getelementptr inbounds nuw %struct.If_Par_t_, ptr %26, i32 0, i32 16
  store i32 1, ptr %27, align 8, !tbaa !24
  %28 = load ptr, ptr %4, align 8, !tbaa !7
  %29 = getelementptr inbounds nuw %struct.If_Par_t_, ptr %28, i32 0, i32 17
  store i32 0, ptr %29, align 4, !tbaa !25
  %30 = load ptr, ptr %4, align 8, !tbaa !7
  %31 = getelementptr inbounds nuw %struct.If_Par_t_, ptr %30, i32 0, i32 19
  store i32 1, ptr %31, align 4, !tbaa !26
  %32 = load ptr, ptr %4, align 8, !tbaa !7
  %33 = getelementptr inbounds nuw %struct.If_Par_t_, ptr %32, i32 0, i32 20
  store i32 0, ptr %33, align 8, !tbaa !27
  %34 = load ptr, ptr %4, align 8, !tbaa !7
  %35 = getelementptr inbounds nuw %struct.If_Par_t_, ptr %34, i32 0, i32 21
  store i32 0, ptr %35, align 4, !tbaa !28
  %36 = load ptr, ptr %4, align 8, !tbaa !7
  %37 = getelementptr inbounds nuw %struct.If_Par_t_, ptr %36, i32 0, i32 48
  store i32 0, ptr %37, align 8, !tbaa !29
  %38 = load ptr, ptr %4, align 8, !tbaa !7
  %39 = getelementptr inbounds nuw %struct.If_Par_t_, ptr %38, i32 0, i32 50
  store ptr null, ptr %39, align 8, !tbaa !30
  %40 = load ptr, ptr %4, align 8, !tbaa !7
  %41 = getelementptr inbounds nuw %struct.If_Par_t_, ptr %40, i32 0, i32 55
  store i32 0, ptr %41, align 8, !tbaa !31
  %42 = load ptr, ptr %4, align 8, !tbaa !7
  %43 = getelementptr inbounds nuw %struct.If_Par_t_, ptr %42, i32 0, i32 61
  store i32 0, ptr %43, align 8, !tbaa !32
  %44 = load ptr, ptr %4, align 8, !tbaa !7
  %45 = getelementptr inbounds nuw %struct.If_Par_t_, ptr %44, i32 0, i32 62
  store i32 0, ptr %45, align 4, !tbaa !33
  %46 = load ptr, ptr %4, align 8, !tbaa !7
  %47 = getelementptr inbounds nuw %struct.If_Par_t_, ptr %46, i32 0, i32 65
  store i32 0, ptr %47, align 8, !tbaa !34
  %48 = load ptr, ptr %4, align 8, !tbaa !7
  %49 = getelementptr inbounds nuw %struct.If_Par_t_, ptr %48, i32 0, i32 66
  store i32 1, ptr %49, align 4, !tbaa !35
  %50 = load ptr, ptr %4, align 8, !tbaa !7
  %51 = getelementptr inbounds nuw %struct.If_Par_t_, ptr %50, i32 0, i32 70
  store ptr null, ptr %51, align 8, !tbaa !36
  %52 = load ptr, ptr %4, align 8, !tbaa !7
  %53 = getelementptr inbounds nuw %struct.If_Par_t_, ptr %52, i32 0, i32 71
  store ptr null, ptr %53, align 8, !tbaa !37
  %54 = load ptr, ptr %4, align 8, !tbaa !7
  %55 = getelementptr inbounds nuw %struct.If_Par_t_, ptr %54, i32 0, i32 72
  store ptr null, ptr %55, align 8, !tbaa !38
  %56 = load ptr, ptr %4, align 8, !tbaa !7
  %57 = getelementptr inbounds nuw %struct.If_Par_t_, ptr %56, i32 0, i32 73
  store ptr null, ptr %57, align 8, !tbaa !39
  call void @llvm.lifetime.end.p0(i64 8, ptr %4) #14
  call void @llvm.lifetime.end.p0(i64 8, ptr %3) #14
  ret void
}