; Function Attrs: mustprogress nofree norecurse nosync nounwind willreturn memory(argmem: write) uwtable
define void @Gia_ManSetIfParsDefault(ptr noundef writeonly captures(none) initializes((0, 360)) %0) local_unnamed_addr #0 {
  %2 = getelementptr inbounds nuw i8, ptr %0, i64 16
  tail call void @llvm.memset.p0.i64(ptr noundef nonnull align 8 dereferenceable(360) %2, i8 0, i64 344, i1 false)
  store i32 -1, ptr %0, align 8, !tbaa !3
  %3 = getelementptr inbounds nuw i8, ptr %0, i64 4
  store i32 8, ptr %3, align 4, !tbaa !13
  %4 = getelementptr inbounds nuw i8, ptr %0, i64 8
  store i32 1, ptr %4, align 8, !tbaa !14
  %5 = getelementptr inbounds nuw i8, ptr %0, i64 12
  store i32 2, ptr %5, align 4, !tbaa !15
  %6 = getelementptr inbounds nuw i8, ptr %0, i64 24
  store float -1.000000e+00, ptr %6, align 8, !tbaa !16
  %7 = getelementptr inbounds nuw i8, ptr %0, i64 28
  store float 0x3F747AE140000000, ptr %7, align 4, !tbaa !17
  %8 = getelementptr inbounds nuw i8, ptr %0, i64 52
  store i32 1, ptr %8, align 4, !tbaa !18
  %9 = getelementptr inbounds nuw i8, ptr %0, i64 60
  store i32 0, ptr %9, align 4, !tbaa !19
  %10 = getelementptr inbounds nuw i8, ptr %0, i64 64
  store i32 1, ptr %10, align 8, !tbaa !20
  %11 = getelementptr inbounds nuw i8, ptr %0, i64 76
  store i32 1, ptr %11, align 4, !tbaa !21
  %12 = getelementptr inbounds nuw i8, ptr %0, i64 84
  store i32 0, ptr %12, align 4, !tbaa !22
  %13 = getelementptr inbounds nuw i8, ptr %0, i64 200
  store ptr null, ptr %13, align 8, !tbaa !23
  %14 = getelementptr inbounds nuw i8, ptr %0, i64 248
  store i32 0, ptr %14, align 8, !tbaa !24
  %15 = getelementptr inbounds nuw i8, ptr %0, i64 264
  store i32 0, ptr %15, align 8, !tbaa !25
  %16 = getelementptr inbounds nuw i8, ptr %0, i64 268
  store i32 1, ptr %16, align 4, !tbaa !26
  %17 = getelementptr inbounds nuw i8, ptr %0, i64 288
  tail call void @llvm.memset.p0.i64(ptr noundef nonnull align 8 dereferenceable(32) %17, i8 0, i64 32, i1 false)
  ret void
}